; Function Attrs: null_pointer_is_valid sspstrong uwtable
define internal fastcc i32 @dissect_rsl_ie_multirate_conf(ptr noundef %0, ptr noundef %1, ptr noundef %2, i32 noundef %3, i1 noundef zeroext %4) unnamed_addr #0 {
  %6 = alloca ptr, align 8
  call void @llvm.lifetime.start.p0(i64 8, ptr nonnull %6) #6
  br i1 %4, label %9, label %7

7:                                                ; preds = %5
  %8 = tail call zeroext i8 @tvb_get_uint8(ptr noundef %0, i32 noundef %3)
  %.not = icmp eq i8 %8, 54
  br i1 %.not, label %9, label %24

9:                                                ; preds = %7, %5
  %10 = load i32, ptr @ett_ie_multirate_conf, align 4
  %11 = call ptr @proto_tree_add_subtree(ptr noundef %2, ptr noundef %0, i32 noundef %3, i32 noundef 0, i32 noundef %10, ptr noundef nonnull %6, ptr noundef nonnull @.str.809)
  %12 = load i32, ptr @hf_rsl_ie_id, align 4
  %13 = call ptr @proto_tree_add_item(ptr noundef %11, i32 noundef %12, ptr noundef %0, i32 noundef %3, i32 noundef 1, i32 noundef 0)
  %14 = add i32 %3, 1
  %15 = call zeroext i8 @tvb_get_uint8(ptr noundef %0, i32 noundef %14)
  %16 = zext i8 %15 to i32
  %17 = load ptr, ptr %6, align 8
  %18 = add nuw nsw i32 %16, 2
  call void @proto_item_set_len(ptr noundef %17, i32 noundef %18)
  %19 = load i32, ptr @hf_rsl_ie_length, align 4
  %20 = call ptr @proto_tree_add_item(ptr noundef %11, i32 noundef %19, ptr noundef %0, i32 noundef %14, i32 noundef 1, i32 noundef 0)
  %21 = add i32 %3, 2
  %22 = call zeroext i16 @de_rr_multirate_conf(ptr noundef %0, ptr noundef %11, ptr noundef %1, i32 noundef %21, i32 noundef %16, ptr noundef null, i32 noundef 0)
  %23 = add i32 %21, %16
  br label %24

24:                                               ; preds = %7, %9
  %.0 = phi i32 [ %23, %9 ], [ %3, %7 ]
  call void @llvm.lifetime.end.p0(i64 8, ptr nonnull %6) #6
  ret i32 %.0
}